(dp0
Vfullscreen_mode
p1
I0
sVorientation
p2
Vhorizontal
p3
sVfocus
p4
(lp5
I21111568
aI21109360
aI20732640
asVurgent
p6
I00
sVlast_split_layout
p7
Vsplith
p8
sVfloating
p9
Vauto_off
p10
sVborder
p11
Vnormal
p12
sVid
p13
I20732112
sVcurrent_border_width
p14
I-1
sVlayout
p15
Vsplith
p16
sVpercent
p17
NsVworkspace_layout
p18
Vdefault
p19
sVwindow
p20
NsVnodes
p21
(lp22
(dp23
Vfullscreen_mode
p24
I0
sVorientation
p25
Vnone
p26
sVfocus
p27
(lp28
I21106240
asVurgent
p29
I00
sVlast_split_layout
p30
Vsplith
p31
sVfloating
p32
Vauto_off
p33
sVborder
p34
Vnormal
p35
sVid
p36
I20732640
sVcurrent_border_width
p37
I-1
sVlayout
p38
Voutput
p39
sVpercent
p40
F0.3333333333333333
sVworkspace_layout
p41
Vdefault
p42
sVwindow
p43
NsVnodes
p44
(lp45
(dp46
Vfullscreen_mode
p47
I0
sVorientation
p48
Vhorizontal
p49
sVfocus
p50
(lp51
I21106624
asVurgent
p52
I00
sVlast_split_layout
p53
Vsplith
p54
sVfloating
p55
Vauto_off
p56
sVborder
p57
Vnormal
p58
sVid
p59
I21106240
sVcurrent_border_width
p60
I-1
sVlayout
p61
Vsplith
p62
sVpercent
p63
NsVworkspace_layout
p64
Vdefault
p65
sVwindow
p66
NsVnodes
p67
(lp68
(dp69
Vfullscreen_mode
p70
I1
sVorientation
p71
Vnone
p72
sVfocus
p73
(lp74
sVurgent
p75
I00
sVnum
p76
I-1
sVlast_split_layout
p77
Vsplith
p78
sVfloating
p79
Vauto_off
p80
sVborder
p81
Vnormal
p82
sVid
p83
I21106624
sVcurrent_border_width
p84
I-1
sVlayout
p85
Vsplith
p86
sVpercent
p87
NsVworkspace_layout
p88
Vdefault
p89
sVwindow
p90
NsVnodes
p91
(lp92
sVtype
p93
I4
sVswallows
p94
(lp95
sVfocused
p96
I00
sVscratchpad_state
p97
Vnone
p98
sVrect
p99
(dp100
Vy
p101
I0
sVx
p102
I0
sVheight
p103
I0
sVwidth
p104
I0
ssVwindow_rect
p105
(dp106
g101
I0
sg102
I0
sVheight
p107
I0
sVwidth
p108
I0
ssVname
p109
V__i3_scratch
p110
sVgeometry
p111
(dp112
g101
I0
sg102
I0
sVheight
p113
I0
sVwidth
p114
I0
ssVfloating_nodes
p115
(lp116
sasVtype
p117
I2
sVswallows
p118
(lp119
sVfocused
p120
I00
sVscratchpad_state
p121
Vnone
p122
sVrect
p123
(dp124
g101
I0
sg102
I0
sVheight
p125
I0
sVwidth
p126
I0
ssVwindow_rect
p127
(dp128
g101
I0
sg102
I0
sVheight
p129
I0
sVwidth
p130
I0
ssVname
p131
Vcontent
p132
sVgeometry
p133
(dp134
g101
I0
sg102
I0
sVheight
p135
I0
sVwidth
p136
I0
ssVfloating_nodes
p137
(lp138
sasVtype
p139
I1
sVswallows
p140
(lp141
sVfocused
p142
I00
sVscratchpad_state
p143
Vnone
p144
sVrect
p145
(dp146
g101
I0
sg102
I0
sVheight
p147
I1080
sVwidth
p148
I1920
ssVwindow_rect
p149
(dp150
g101
I0
sg102
I0
sVheight
p151
I0
sVwidth
p152
I0
ssVname
p153
V__i3
p154
sVgeometry
p155
(dp156
g101
I0
sg102
I0
sVheight
p157
I0
sVwidth
p158
I0
ssVfloating_nodes
p159
(lp160
sa(dp161
Vfullscreen_mode
p162
I0
sVorientation
p163
Vnone
p164
sVfocus
p165
(lp166
I21112784
aI21112128
aI21113376
asVurgent
p167
I00
sVlast_split_layout
p168
Vsplith
p169
sVfloating
p170
Vauto_off
p171
sVborder
p172
Vnormal
p173
sVid
p174
I21111568
sVcurrent_border_width
p175
I-1
sVlayout
p176
Voutput
p177
sVpercent
p178
F0.3333333333333333
sVworkspace_layout
p179
Vdefault
p180
sVwindow
p181
NsVnodes
p182
(lp183
(dp184
Vfullscreen_mode
p185
I0
sVorientation
p186
Vnone
p187
sVfocus
p188
(lp189
sVurgent
p190
I00
sVlast_split_layout
p191
Vsplith
p192
sVfloating
p193
Vauto_off
p194
sVborder
p195
Vnormal
p196
sVid
p197
I21112128
sVcurrent_border_width
p198
I-1
sVlayout
p199
Vdockarea
p200
sVpercent
p201
NsVworkspace_layout
p202
Vdefault
p203
sVwindow
p204
NsVnodes
p205
(lp206
sVtype
p207
I5
sVswallows
p208
(lp209
(dp210
Vdock
p211
I2
sVinsert_where
p212
I2
sasVfocused
p213
I00
sVscratchpad_state
p214
Vnone
p215
sVrect
p216
(dp217
g101
I0
sg102
I0
sVheight
p218
I0
sVwidth
p219
I1920
ssVwindow_rect
p220
(dp221
g101
I0
sg102
I0
sVheight
p222
I0
sVwidth
p223
I0
ssVname
p224
Vtopdock
p225
sVgeometry
p226
(dp227
g101
I0
sg102
I0
sVheight
p228
I0
sVwidth
p229
I0
ssVfloating_nodes
p230
(lp231
sa(dp232
Vfullscreen_mode
p233
I0
sVorientation
p234
Vhorizontal
p235
sVfocus
p236
(lp237
I21026192
aI21128288
asVurgent
p238
I00
sVlast_split_layout
p239
Vsplith
p240
sVfloating
p241
Vauto_off
p242
sVborder
p243
Vnormal
p244
sVid
p245
I21112784
sVcurrent_border_width
p246
I-1
sVlayout
p247
Vsplith
p248
sVpercent
p249
NsVworkspace_layout
p250
Vdefault
p251
sVwindow
p252
NsVnodes
p253
(lp254
(dp255
Vfullscreen_mode
p256
I0
sVorientation
p257
Vhorizontal
p258
sVfocus
p259
(lp260
I21138704
asVurgent
p261
I00
sVnum
p262
I1
sVlast_split_layout
p263
Vsplith
p264
sVfloating
p265
Vauto_off
p266
sVborder
p267
Vnormal
p268
sVid
p269
I21128288
sVcurrent_border_width
p270
I-1
sVlayout
p271
Vsplith
p272
sVpercent
p273
F1.0
sVworkspace_layout
p274
Vdefault
p275
sVwindow
p276
NsVnodes
p277
(lp278
(dp279
Vfullscreen_mode
p280
I0
sVorientation
p281
Vhorizontal
p282
sVfocus
p283
(lp284
I21135312
aI21134688
asVurgent
p285
I00
sVlast_split_layout
p286
Vsplith
p287
sVfloating
p288
Vauto_off
p289
sVborder
p290
Vnormal
p291
sVid
p292
I21138704
sVcurrent_border_width
p293
I-1
sVlayout
p294
Vsplith
p295
sVpercent
p296
NsVworkspace_layout
p297
Vdefault
p298
sVwindow
p299
NsVnodes
p300
(lp301
(dp302
Vfullscreen_mode
p303
I0
sVorientation
p304
Vhorizontal
p305
sVfocus
p306
(lp307
I21132272
aI21130112
asVurgent
p308
I00
sVlast_split_layout
p309
Vsplith
p310
sVfloating
p311
Vauto_off
p312
sVborder
p313
Vnormal
p314
sVid
p315
I21135312
sVcurrent_border_width
p316
I-1
sVlayout
p317
Vsplith
p318
sVpercent
p319
F0.6
sVworkspace_layout
p320
Vdefault
p321
sVwindow
p322
NsVnodes
p323
(lp324
(dp325
Vfullscreen_mode
p326
I0
sVorientation
p327
Vnone
p328
sVprocess
p329
S'urxvt'
p330
sVfocus
p331
(lp332
sVurgent
p333
I00
sVlast_split_layout
p334
Vsplith
p335
sVfloating
p336
Vauto_off
p337
sVborder
p338
Vnormal
p339
sVid
p340
I21130112
sVcurrent_border_width
p341
I-1
sVlayout
p342
Vsplith
p343
sVpercent
p344
F0.4
sVworkspace_layout
p345
Vdefault
p346
sVwindow
p347
I29360138
sVnodes
p348
(lp349
sVtype
p350
I2
sVswallows
p351
(lp352
sVfocused
p353
I00
sVscratchpad_state
p354
Vnone
p355
sVrect
p356
(dp357
g101
I22
sg102
I0
sVheight
p358
I1034
sVwidth
p359
I461
ssVwindow_rect
p360
(dp361
g101
I0
sg102
I2
sVheight
p362
I1032
sVwidth
p363
I457
ssVname
p364
Vrevan@xps15: ~
p365
sVgeometry
p366
(dp367
g101
I0
sg102
I0
sVheight
p368
I606
sVwidth
p369
I828
ssVfloating_nodes
p370
(lp371
sa(dp372
Vfullscreen_mode
p373
I0
sVorientation
p374
Vnone
p375
sg329
S'urxvt'
p376
sVfocus
p377
(lp378
sVurgent
p379
I00
sVlast_split_layout
p380
Vsplith
p381
sVfloating
p382
Vauto_off
p383
sVborder
p384
Vnormal
p385
sVid
p386
I21132272
sVcurrent_border_width
p387
I-1
sVlayout
p388
Vsplith
p389
sVpercent
p390
F0.6
sVworkspace_layout
p391
Vdefault
p392
sVwindow
p393
I31457290
sVnodes
p394
(lp395
sVtype
p396
I2
sVswallows
p397
(lp398
sVfocused
p399
I00
sVscratchpad_state
p400
Vnone
p401
sVrect
p402
(dp403
g101
I22
sg102
I461
sVheight
p404
I1034
sVwidth
p405
I691
ssVwindow_rect
p406
(dp407
g101
I0
sg102
I2
sVheight
p408
I1032
sVwidth
p409
I687
ssVname
p410
V2-4.c (~/Dropbox/C) - VIM
p411
sVgeometry
p412
(dp413
g101
I0
sg102
I0
sVheight
p414
I606
sVwidth
p415
I828
ssVfloating_nodes
p416
(lp417
sasVtype
p418
I2
sVswallows
p419
(lp420
sVfocused
p421
I00
sVscratchpad_state
p422
Vnone
p423
sVrect
p424
(dp425
g101
I0
sg102
I0
sVheight
p426
I1056
sVwidth
p427
I1152
ssVwindow_rect
p428
(dp429
g101
I0
sg102
I0
sVheight
p430
I0
sVwidth
p431
I0
ssVname
p432
V#aa0000
p433
sVgeometry
p434
(dp435
g101
I0
sg102
I0
sVheight
p436
I0
sVwidth
p437
I0
ssVfloating_nodes
p438
(lp439
sa(dp440
Vfullscreen_mode
p441
I0
sVorientation
p442
Vnone
p443
sg329
S'okular'
p444
sVfocus
p445
(lp446
sVurgent
p447
I00
sVlast_split_layout
p448
Vsplith
p449
sVfloating
p450
Vauto_off
p451
sVborder
p452
Vnormal
p453
sVid
p454
I21134688
sVcurrent_border_width
p455
I-1
sVlayout
p456
Vsplith
p457
sVpercent
p458
F0.4
sVworkspace_layout
p459
Vdefault
p460
sVwindow
p461
I33554450
sVnodes
p462
(lp463
sVtype
p464
I2
sVswallows
p465
(lp466
sVfocused
p467
I00
sVscratchpad_state
p468
Vnone
p469
sVrect
p470
(dp471
g101
I22
sg102
I1152
sVheight
p472
I1034
sVwidth
p473
I768
ssVwindow_rect
p474
(dp475
g101
I0
sg102
I2
sVheight
p476
I1032
sVwidth
p477
I764
ssVname
p478
VThe C Programming Language (Second Edition) \u2013 Okular
p479
sVgeometry
p480
(dp481
g101
I0
sg102
I0
sVheight
p482
I1003
sVwidth
p483
I956
ssVfloating_nodes
p484
(lp485
sasVtype
p486
I2
sVswallows
p487
(lp488
sVfocused
p489
I00
sVscratchpad_state
p490
Vnone
p491
sVrect
p492
(dp493
g101
I0
sg102
I0
sVheight
p494
I1056
sVwidth
p495
I1920
ssVwindow_rect
p496
(dp497
g101
I0
sg102
I0
sVheight
p498
I0
sVwidth
p499
I0
ssVname
p500
V#0000aa
p501
sVgeometry
p502
(dp503
g101
I0
sg102
I0
sVheight
p504
I0
sVwidth
p505
I0
ssVfloating_nodes
p506
(lp507
sasVtype
p508
I4
sVswallows
p509
(lp510
sVfocused
p511
I00
sVscratchpad_state
p512
Vnone
p513
sVrect
p514
(dp515
g101
I0
sg102
I0
sVheight
p516
I1056
sVwidth
p517
I1920
ssVwindow_rect
p518
(dp519
g101
I0
sg102
I0
sVheight
p520
I0
sVwidth
p521
I0
ssVname
p522
V1
p523
sVgeometry
p524
(dp525
g101
I0
sg102
I0
sVheight
p526
I0
sVwidth
p527
I0
ssVfloating_nodes
p528
(lp529
sa(dp530
Vfullscreen_mode
p531
I1
sVorientation
p532
Vhorizontal
p533
sVfocus
p534
(lp535
I21126320
asVurgent
p536
I00
sVnum
p537
I2
sVlast_split_layout
p538
Vsplith
p539
sVfloating
p540
Vauto_off
p541
sVborder
p542
Vnormal
p543
sVid
p544
I21026192
sVcurrent_border_width
p545
I-1
sVlayout
p546
Vsplith
p547
sVpercent
p548
NsVworkspace_layout
p549
Vdefault
p550
sVwindow
p551
NsVnodes
p552
(lp553
(dp554
Vfullscreen_mode
p555
I0
sVorientation
p556
Vnone
p557
sg329
S'urxvt'
p558
sVfocus
p559
(lp560
sVurgent
p561
I00
sVlast_split_layout
p562
Vsplith
p563
sVfloating
p564
Vauto_off
p565
sVborder
p566
Vnormal
p567
sVid
p568
I21126320
sVcurrent_border_width
p569
I-1
sVlayout
p570
Vsplith
p571
sVpercent
p572
F1.0
sVworkspace_layout
p573
Vdefault
p574
sVwindow
p575
I44040202
sVnodes
p576
(lp577
sVtype
p578
I2
sVswallows
p579
(lp580
sVfocused
p581
I01
sVscratchpad_state
p582
Vnone
p583
sVrect
p584
(dp585
g101
I22
sg102
I0
sVheight
p586
I1034
sVwidth
p587
I1920
ssVwindow_rect
p588
(dp589
g101
I0
sg102
I2
sVheight
p590
I1032
sVwidth
p591
I1916
ssVname
p592
Vi3session save
p593
sVgeometry
p594
(dp595
g101
I0
sg102
I0
sVheight
p596
I606
sVwidth
p597
I828
ssVfloating_nodes
p598
(lp599
sasVtype
p600
I4
sVswallows
p601
(lp602
sVfocused
p603
I00
sVscratchpad_state
p604
Vnone
p605
sVrect
p606
(dp607
g101
I0
sg102
I0
sVheight
p608
I1056
sVwidth
p609
I1920
ssVwindow_rect
p610
(dp611
g101
I0
sg102
I0
sVheight
p612
I0
sVwidth
p613
I0
ssVname
p614
V2
p615
sVgeometry
p616
(dp617
g101
I0
sg102
I0
sVheight
p618
I0
sVwidth
p619
I0
ssVfloating_nodes
p620
(lp621
sasVtype
p622
I2
sVswallows
p623
(lp624
sVfocused
p625
I00
sVscratchpad_state
p626
Vnone
p627
sVrect
p628
(dp629
g101
I0
sg102
I0
sVheight
p630
I1056
sVwidth
p631
I1920
ssVwindow_rect
p632
(dp633
g101
I0
sg102
I0
sVheight
p634
I0
sVwidth
p635
I0
ssVname
p636
Vcontent
p637
sVgeometry
p638
(dp639
g101
I0
sg102
I0
sVheight
p640
I0
sVwidth
p641
I0
ssVfloating_nodes
p642
(lp643
sa(dp644
Vfullscreen_mode
p645
I0
sVorientation
p646
Vnone
p647
sVfocus
p648
(lp649
I21107664
asVurgent
p650
I00
sVlast_split_layout
p651
Vsplith
p652
sVfloating
p653
Vauto_off
p654
sVborder
p655
Vnormal
p656
sVid
p657
I21113376
sVcurrent_border_width
p658
I-1
sVlayout
p659
Vdockarea
p660
sVpercent
p661
NsVworkspace_layout
p662
Vdefault
p663
sVwindow
p664
NsVnodes
p665
(lp666
(dp667
Vfullscreen_mode
p668
I0
sVorientation
p669
Vnone
p670
sg329
S'i3bar'
p671
sVfocus
p672
(lp673
sVurgent
p674
I00
sVlast_split_layout
p675
Vsplith
p676
sVfloating
p677
Vauto_off
p678
sVborder
p679
Vnormal
p680
sVid
p681
I21107664
sVcurrent_border_width
p682
I-1
sVlayout
p683
Vsplith
p684
sVpercent
p685
F1.0
sVworkspace_layout
p686
Vdefault
p687
sVwindow
p688
I12582919
sVnodes
p689
(lp690
sVtype
p691
I2
sVswallows
p692
(lp693
sVfocused
p694
I00
sVscratchpad_state
p695
Vnone
p696
sVrect
p697
(dp698
g101
I1056
sg102
I0
sVheight
p699
I24
sVwidth
p700
I1920
ssVwindow_rect
p701
(dp702
g101
I0
sg102
I0
sVheight
p703
I24
sVwidth
p704
I1920
ssVname
p705
Vi3bar for output HDMI1
p706
sVgeometry
p707
(dp708
g101
I1056
sg102
I0
sVheight
p709
I24
sVwidth
p710
I1920
ssVfloating_nodes
p711
(lp712
sasVtype
p713
I5
sVswallows
p714
(lp715
(dp716
Vdock
p717
I3
sVinsert_where
p718
I2
sasVfocused
p719
I00
sVscratchpad_state
p720
Vnone
p721
sVrect
p722
(dp723
g101
I1056
sg102
I0
sVheight
p724
I24
sVwidth
p725
I1920
ssVwindow_rect
p726
(dp727
g101
I0
sg102
I0
sVheight
p728
I0
sVwidth
p729
I0
ssVname
p730
Vbottomdock
p731
sVgeometry
p732
(dp733
g101
I0
sg102
I0
sVheight
p734
I0
sVwidth
p735
I0
ssVfloating_nodes
p736
(lp737
sasVtype
p738
I1
sVswallows
p739
(lp740
sVfocused
p741
I00
sVscratchpad_state
p742
Vnone
p743
sVrect
p744
(dp745
g101
I0
sg102
I0
sVheight
p746
I1080
sVwidth
p747
I1920
ssVwindow_rect
p748
(dp749
g101
I0
sg102
I0
sVheight
p750
I0
sVwidth
p751
I0
ssVname
p752
VHDMI1
p753
sVgeometry
p754
(dp755
g101
I0
sg102
I0
sVheight
p756
I0
sVwidth
p757
I0
ssVfloating_nodes
p758
(lp759
sa(dp760
Vfullscreen_mode
p761
I0
sVorientation
p762
Vnone
p763
sVfocus
p764
(lp765
I21110464
aI21109856
aI21110960
asVurgent
p766
I00
sVlast_split_layout
p767
Vsplith
p768
sVfloating
p769
Vauto_off
p770
sVborder
p771
Vnormal
p772
sVid
p773
I21109360
sVcurrent_border_width
p774
I-1
sVlayout
p775
Voutput
p776
sVpercent
p777
F0.3333333333333333
sVworkspace_layout
p778
Vdefault
p779
sVwindow
p780
NsVnodes
p781
(lp782
(dp783
Vfullscreen_mode
p784
I0
sVorientation
p785
Vnone
p786
sVfocus
p787
(lp788
sVurgent
p789
I00
sVlast_split_layout
p790
Vsplith
p791
sVfloating
p792
Vauto_off
p793
sVborder
p794
Vnormal
p795
sVid
p796
I21109856
sVcurrent_border_width
p797
I-1
sVlayout
p798
Vdockarea
p799
sVpercent
p800
NsVworkspace_layout
p801
Vdefault
p802
sVwindow
p803
NsVnodes
p804
(lp805
sVtype
p806
I5
sVswallows
p807
(lp808
(dp809
Vdock
p810
I2
sVinsert_where
p811
I2
sasVfocused
p812
I00
sVscratchpad_state
p813
Vnone
p814
sVrect
p815
(dp816
g101
I0
sg102
I1920
sVheight
p817
I0
sVwidth
p818
I1920
ssVwindow_rect
p819
(dp820
g101
I0
sg102
I0
sVheight
p821
I0
sVwidth
p822
I0
ssVname
p823
Vtopdock
p824
sVgeometry
p825
(dp826
g101
I0
sg102
I0
sVheight
p827
I0
sVwidth
p828
I0
ssVfloating_nodes
p829
(lp830
sa(dp831
Vfullscreen_mode
p832
I0
sVorientation
p833
Vhorizontal
p834
sVfocus
p835
(lp836
I21114032
asVurgent
p837
I00
sVlast_split_layout
p838
Vsplith
p839
sVfloating
p840
Vauto_off
p841
sVborder
p842
Vnormal
p843
sVid
p844
I21110464
sVcurrent_border_width
p845
I-1
sVlayout
p846
Vsplith
p847
sVpercent
p848
NsVworkspace_layout
p849
Vdefault
p850
sVwindow
p851
NsVnodes
p852
(lp853
(dp854
Vfullscreen_mode
p855
I1
sVorientation
p856
Vhorizontal
p857
sVfocus
p858
(lp859
I21150784
asVurgent
p860
I00
sVnum
p861
I4
sVlast_split_layout
p862
Vsplith
p863
sVfloating
p864
Vauto_off
p865
sVborder
p866
Vnormal
p867
sVid
p868
I21114032
sVcurrent_border_width
p869
I-1
sVlayout
p870
Vsplith
p871
sVpercent
p872
NsVworkspace_layout
p873
Vdefault
p874
sVwindow
p875
NsVnodes
p876
(lp877
(dp878
Vfullscreen_mode
p879
I0
sVorientation
p880
Vnone
p881
sg329
S'clementine'
p882
sVfocus
p883
(lp884
sVurgent
p885
I00
sVlast_split_layout
p886
Vsplith
p887
sVfloating
p888
Vauto_off
p889
sVborder
p890
Vnormal
p891
sVid
p892
I21150784
sVcurrent_border_width
p893
I-1
sVlayout
p894
Vsplith
p895
sVpercent
p896
F1.0
sVworkspace_layout
p897
Vdefault
p898
sVwindow
p899
I46137360
sVnodes
p900
(lp901
sVtype
p902
I2
sVswallows
p903
(lp904
sVfocused
p905
I00
sVscratchpad_state
p906
Vnone
p907
sVrect
p908
(dp909
g101
I22
sg102
I1920
sVheight
p910
I1034
sVwidth
p911
I1920
ssVwindow_rect
p912
(dp913
g101
I0
sg102
I2
sVheight
p914
I1032
sVwidth
p915
I1916
ssVname
p916
VClementine
p917
sVgeometry
p918
(dp919
g101
I22
sg102
I1920
sVheight
p920
I1032
sVwidth
p921
I1916
ssVfloating_nodes
p922
(lp923
sasVtype
p924
I4
sVswallows
p925
(lp926
sVfocused
p927
I00
sVscratchpad_state
p928
Vnone
p929
sVrect
p930
(dp931
g101
I0
sg102
I1920
sVheight
p932
I1056
sVwidth
p933
I1920
ssVwindow_rect
p934
(dp935
g101
I0
sg102
I0
sVheight
p936
I0
sVwidth
p937
I0
ssVname
p938
V4
p939
sVgeometry
p940
(dp941
g101
I0
sg102
I0
sVheight
p942
I0
sVwidth
p943
I0
ssVfloating_nodes
p944
(lp945
sasVtype
p946
I2
sVswallows
p947
(lp948
sVfocused
p949
I00
sVscratchpad_state
p950
Vnone
p951
sVrect
p952
(dp953
g101
I0
sg102
I1920
sVheight
p954
I1056
sVwidth
p955
I1920
ssVwindow_rect
p956
(dp957
g101
I0
sg102
I0
sVheight
p958
I0
sVwidth
p959
I0
ssVname
p960
Vcontent
p961
sVgeometry
p962
(dp963
g101
I0
sg102
I0
sVheight
p964
I0
sVwidth
p965
I0
ssVfloating_nodes
p966
(lp967
sa(dp968
Vfullscreen_mode
p969
I0
sVorientation
p970
Vnone
p971
sVfocus
p972
(lp973
I21116944
asVurgent
p974
I00
sVlast_split_layout
p975
Vsplith
p976
sVfloating
p977
Vauto_off
p978
sVborder
p979
Vnormal
p980
sVid
p981
I21110960
sVcurrent_border_width
p982
I-1
sVlayout
p983
Vdockarea
p984
sVpercent
p985
NsVworkspace_layout
p986
Vdefault
p987
sVwindow
p988
NsVnodes
p989
(lp990
(dp991
Vfullscreen_mode
p992
I0
sVorientation
p993
Vnone
p994
sg329
S'i3bar'
p995
sVfocus
p996
(lp997
sVurgent
p998
I00
sVlast_split_layout
p999
Vsplith
p1000
sVfloating
p1001
Vauto_off
p1002
sVborder
p1003
Vnormal
p1004
sVid
p1005
I21116944
sVcurrent_border_width
p1006
I-1
sVlayout
p1007
Vsplith
p1008
sVpercent
p1009
F1.0
sVworkspace_layout
p1010
Vdefault
p1011
sVwindow
p1012
I12582923
sVnodes
p1013
(lp1014
sVtype
p1015
I2
sVswallows
p1016
(lp1017
sVfocused
p1018
I00
sVscratchpad_state
p1019
Vnone
p1020
sVrect
p1021
(dp1022
g101
I1056
sg102
I1920
sVheight
p1023
I24
sVwidth
p1024
I1920
ssVwindow_rect
p1025
(dp1026
g101
I0
sg102
I0
sVheight
p1027
I24
sVwidth
p1028
I1920
ssVname
p1029
Vi3bar for output LVDS1
p1030
sVgeometry
p1031
(dp1032
g101
I1056
sg102
I1920
sVheight
p1033
I24
sVwidth
p1034
I1920
ssVfloating_nodes
p1035
(lp1036
sasVtype
p1037
I5
sVswallows
p1038
(lp1039
(dp1040
Vdock
p1041
I3
sVinsert_where
p1042
I2
sasVfocused
p1043
I00
sVscratchpad_state
p1044
Vnone
p1045
sVrect
p1046
(dp1047
g101
I1056
sg102
I1920
sVheight
p1048
I24
sVwidth
p1049
I1920
ssVwindow_rect
p1050
(dp1051
g101
I0
sg102
I0
sVheight
p1052
I0
sVwidth
p1053
I0
ssVname
p1054
Vbottomdock
p1055
sVgeometry
p1056
(dp1057
g101
I0
sg102
I0
sVheight
p1058
I0
sVwidth
p1059
I0
ssVfloating_nodes
p1060
(lp1061
sasVtype
p1062
I1
sVswallows
p1063
(lp1064
sVfocused
p1065
I00
sVscratchpad_state
p1066
Vnone
p1067
sVrect
p1068
(dp1069
g101
I0
sg102
I1920
sVheight
p1070
I1080
sVwidth
p1071
I1920
ssVwindow_rect
p1072
(dp1073
g101
I0
sg102
I0
sVheight
p1074
I0
sVwidth
p1075
I0
ssVname
p1076
VLVDS1
p1077
sVgeometry
p1078
(dp1079
g101
I0
sg102
I0
sVheight
p1080
I0
sVwidth
p1081
I0
ssVfloating_nodes
p1082
(lp1083
sasVtype
p1084
I0
sVswallows
p1085
(lp1086
sVfocused
p1087
I00
sVscratchpad_state
p1088
Vnone
p1089
sVrect
p1090
(dp1091
g101
I0
sg102
I0
sVheight
p1092
I1080
sVwidth
p1093
I1920
ssVwindow_rect
p1094
(dp1095
g101
I0
sg102
I0
sVheight
p1096
I0
sVwidth
p1097
I0
ssVname
p1098
Vroot
p1099
sVgeometry
p1100
(dp1101
g101
I0
sg102
I0
sVheight
p1102
I0
sVwidth
p1103
I0
ssVfloating_nodes
p1104
(lp1105
s.